target datalayout = "e-m:e-p270:32:32-p271:32:32-p272:64:64-i64:64-i128:128-f80:128-n8:16:32:64-S128"
target triple = "x86_64-pc-linux-gnu"

%"class.std::__cxx11::basic_string" = type { %"struct.std::__cxx11::basic_string<char>::_Alloc_hider", i64, %union.anon }
%"struct.std::__cxx11::basic_string<char>::_Alloc_hider" = type { ptr }
%union.anon = type { i64, [8 x i8] }
%"class.testing::AssertionResult" = type { i8, %"class.testing::internal::scoped_ptr" }
%"class.testing::internal::scoped_ptr" = type { ptr }
%"class.testing::Message" = type { %"class.testing::internal::scoped_ptr.153" }
%"class.testing::internal::scoped_ptr.153" = type { ptr }
%"class.testing::internal::AssertHelper" = type { ptr }

@.str.286 = private unnamed_addr constant [127 x i8] c"generated/home/dtcxzyw/WorkSpace/Projects/compilers/llvm-opt-benchmark/bench/hyperscan/hyperscan/unit/hyperscan/arg_checks.cpp\00", align 1
@.str.292 = private unnamed_addr constant [1 x i8] zeroinitializer, align 1
@.str.301 = private unnamed_addr constant [5 x i8] c"(-4)\00", align 1
@.str.302 = private unnamed_addr constant [4 x i8] c"err\00", align 1
@__const._ZN12_GLOBAL__N_153HyperscanArgChecks_multicompile_mix_highlander_1_Test8TestBodyEv.expr = private unnamed_addr constant [2 x ptr] [ptr @.str.366, ptr @.str.367], align 16
@__const._ZN12_GLOBAL__N_153HyperscanArgChecks_multicompile_mix_highlander_1_Test8TestBodyEv.flags = private unnamed_addr constant [2 x i32] [i32 8, i32 0], align 4
@__const._ZN12_GLOBAL__N_153HyperscanArgChecks_multicompile_mix_highlander_1_Test8TestBodyEv.ids = private unnamed_addr constant [2 x i32] [i32 30, i32 30], align 4

; Function Attrs: mustprogress nounwind uwtable
define available_externally noundef ptr @_ZNKSt7__cxx1112basic_stringIcSt11char_traitsIcESaIcEE7_M_dataEv(ptr noundef nonnull align 8 dereferenceable(32) %0) #4 align 2 {
  %2 = alloca ptr, align 8
  store ptr %0, ptr %2, align 8
  %3 = load ptr, ptr %2, align 8
  %4 = getelementptr inbounds nuw %"class.std::__cxx11::basic_string", ptr %3, i32 0, i32 0
  %5 = getelementptr inbounds nuw %"struct.std::__cxx11::basic_string<char>::_Alloc_hider", ptr %4, i32 0, i32 0
  %6 = load ptr, ptr %5, align 8
  ret ptr %6
}

; Function Attrs: mustprogress nounwind uwtable
define available_externally noundef ptr @_ZNKSt7__cxx1112basic_stringIcSt11char_traitsIcESaIcEE5c_strEv(ptr noundef nonnull align 8 dereferenceable(32) %0) #4 align 2 {
  %2 = alloca ptr, align 8
  store ptr %0, ptr %2, align 8
  %3 = load ptr, ptr %2, align 8
  %4 = call noundef ptr @_ZNKSt7__cxx1112basic_stringIcSt11char_traitsIcESaIcEE7_M_dataEv(ptr noundef nonnull align 8 dereferenceable(32) %3)
  ret ptr %4
}

; Function Attrs: mustprogress nounwind uwtable
define linkonce_odr hidden noundef ptr @_ZNK7testing8internal10scoped_ptrINSt7__cxx1112basic_stringIcSt11char_traitsIcESaIcEEEEptEv(ptr noundef nonnull align 8 dereferenceable(8) %0) #4 comdat align 2 {
  %2 = alloca ptr, align 8
  store ptr %0, ptr %2, align 8
  %3 = load ptr, ptr %2, align 8
  %4 = getelementptr inbounds nuw %"class.testing::internal::scoped_ptr", ptr %3, i32 0, i32 0
  %5 = load ptr, ptr %4, align 8
  ret ptr %5
}

; Function Attrs: mustprogress nounwind uwtable
define linkonce_odr hidden noundef ptr @_ZNK7testing8internal10scoped_ptrINSt7__cxx1112basic_stringIcSt11char_traitsIcESaIcEEEE3getEv(ptr noundef nonnull align 8 dereferenceable(8) %0) #4 comdat align 2 {
  %2 = alloca ptr, align 8
  store ptr %0, ptr %2, align 8
  %3 = load ptr, ptr %2, align 8
  %4 = getelementptr inbounds nuw %"class.testing::internal::scoped_ptr", ptr %3, i32 0, i32 0
  %5 = load ptr, ptr %4, align 8
  ret ptr %5
}

; Function Attrs: mustprogress uwtable
define linkonce_odr hidden noundef ptr @_ZNK7testing15AssertionResult7messageEv(ptr noundef nonnull align 8 dereferenceable(16) %0) #10 comdat align 2 {
  %2 = alloca ptr, align 8
  store ptr %0, ptr %2, align 8
  %3 = load ptr, ptr %2, align 8
  %4 = getelementptr inbounds nuw %"class.testing::AssertionResult", ptr %3, i32 0, i32 1
  %5 = call noundef ptr @_ZNK7testing8internal10scoped_ptrINSt7__cxx1112basic_stringIcSt11char_traitsIcESaIcEEEE3getEv(ptr noundef nonnull align 8 dereferenceable(8) %4)
  %6 = icmp ne ptr %5, null
  br i1 %6, label %7, label %11

7:                                                ; preds = %1
  %8 = getelementptr inbounds nuw %"class.testing::AssertionResult", ptr %3, i32 0, i32 1
  %9 = call noundef ptr @_ZNK7testing8internal10scoped_ptrINSt7__cxx1112basic_stringIcSt11char_traitsIcESaIcEEEEptEv(ptr noundef nonnull align 8 dereferenceable(8) %8)
  %10 = call noundef ptr @_ZNKSt7__cxx1112basic_stringIcSt11char_traitsIcESaIcEE5c_strEv(ptr noundef nonnull align 8 dereferenceable(32) %9) #3
  br label %12

11:                                               ; preds = %1
  br label %12

12:                                               ; preds = %11, %7
  %13 = phi ptr [ %10, %7 ], [ @.str.292, %11 ]
  ret ptr %13
}

; Function Attrs: mustprogress uwtable
define linkonce_odr hidden noundef ptr @_ZNK7testing15AssertionResult15failure_messageEv(ptr noundef nonnull align 8 dereferenceable(16) %0) #10 comdat align 2 {
  %2 = alloca ptr, align 8
  store ptr %0, ptr %2, align 8
  %3 = load ptr, ptr %2, align 8
  %4 = call noundef ptr @_ZNK7testing15AssertionResult7messageEv(ptr noundef nonnull align 8 dereferenceable(16) %3)
  ret ptr %4
}

; Function Attrs: mustprogress nounwind uwtable
define linkonce_odr hidden noundef zeroext i1 @_ZNK7testing15AssertionResultcvbEv(ptr noundef nonnull align 8 dereferenceable(16) %0) #4 comdat align 2 {
  %2 = alloca ptr, align 8
  store ptr %0, ptr %2, align 8
  %3 = load ptr, ptr %2, align 8
  %4 = getelementptr inbounds nuw %"class.testing::AssertionResult", ptr %3, i32 0, i32 0
  %5 = load i8, ptr %4, align 8, !range !7, !noundef !8
  %6 = trunc i8 %5 to i1
  ret i1 %6
}

; Function Attrs: mustprogress uwtable
define linkonce_odr hidden void @_ZN7testing8internal8EqHelperILb0EE7CompareIiiEENS_15AssertionResultEPKcS6_RKT_RKT0_(ptr dead_on_unwind noalias writable sret(%"class.testing::AssertionResult") align 8 %0, ptr noundef %1, ptr noundef %2, ptr noundef nonnull align 4 dereferenceable(4) %3, ptr noundef nonnull align 4 dereferenceable(4) %4) #10 comdat align 2 {
  %6 = alloca ptr, align 8
  %7 = alloca ptr, align 8
  %8 = alloca ptr, align 8
  %9 = alloca ptr, align 8
  %10 = alloca ptr, align 8
  store ptr %0, ptr %6, align 8
  store ptr %1, ptr %7, align 8
  store ptr %2, ptr %8, align 8
  store ptr %3, ptr %9, align 8
  store ptr %4, ptr %10, align 8
  %11 = load ptr, ptr %7, align 8
  %12 = load ptr, ptr %8, align 8
  %13 = load ptr, ptr %9, align 8
  %14 = load ptr, ptr %10, align 8
  call void @_ZN7testing8internal11CmpHelperEQIiiEENS_15AssertionResultEPKcS4_RKT_RKT0_(ptr dead_on_unwind writable sret(%"class.testing::AssertionResult") align 8 %0, ptr noundef %11, ptr noundef %12, ptr noundef nonnull align 4 dereferenceable(4) %13, ptr noundef nonnull align 4 dereferenceable(4) %14)
  ret void
}

; Function Attrs: mustprogress uwtable
define internal void @_ZN12_GLOBAL__N_153HyperscanArgChecks_multicompile_mix_highlander_1_Test8TestBodyEv(ptr noundef nonnull align 8 dereferenceable(16) %0) unnamed_addr #10 align 2 personality ptr @__gxx_personality_v0 {
  %2 = alloca ptr, align 8
  %3 = alloca ptr, align 8
  %4 = alloca ptr, align 8
  %5 = alloca [2 x ptr], align 16
  %6 = alloca [2 x i32], align 4
  %7 = alloca [2 x i32], align 4
  %8 = alloca i32, align 4
  %9 = alloca %"class.testing::AssertionResult", align 8
  %10 = alloca i32, align 4
  %11 = alloca %"class.testing::Message", align 8
  %12 = alloca ptr, align 8
  %13 = alloca i32, align 4
  %14 = alloca %"class.testing::internal::AssertHelper", align 8
  %15 = alloca i32, align 4
  store ptr %0, ptr %2, align 8
  call void @llvm.lifetime.start.p0(i64 8, ptr %3) #3
  store ptr null, ptr %3, align 8
  call void @llvm.lifetime.start.p0(i64 8, ptr %4) #3
  store ptr null, ptr %4, align 8
  call void @llvm.lifetime.start.p0(i64 16, ptr %5) #3
  call void @llvm.memcpy.p0.p0.i64(ptr align 16 %5, ptr align 16 @__const._ZN12_GLOBAL__N_153HyperscanArgChecks_multicompile_mix_highlander_1_Test8TestBodyEv.expr, i64 16, i1 false)
  call void @llvm.lifetime.start.p0(i64 8, ptr %6) #3
  call void @llvm.memcpy.p0.p0.i64(ptr align 4 %6, ptr align 4 @__const._ZN12_GLOBAL__N_153HyperscanArgChecks_multicompile_mix_highlander_1_Test8TestBodyEv.flags, i64 8, i1 false)
  call void @llvm.lifetime.start.p0(i64 8, ptr %7) #3
  call void @llvm.memcpy.p0.p0.i64(ptr align 4 %7, ptr align 4 @__const._ZN12_GLOBAL__N_153HyperscanArgChecks_multicompile_mix_highlander_1_Test8TestBodyEv.ids, i64 8, i1 false)
  call void @llvm.lifetime.start.p0(i64 4, ptr %8) #3
  %16 = getelementptr inbounds [2 x ptr], ptr %5, i64 0, i64 0
  %17 = getelementptr inbounds [2 x i32], ptr %6, i64 0, i64 0
  %18 = getelementptr inbounds [2 x i32], ptr %7, i64 0, i64 0
  %19 = call i32 @hs_compile_multi(ptr noundef %16, ptr noundef %17, ptr noundef %18, i32 noundef 2, i32 noundef 1, ptr noundef null, ptr noundef %3, ptr noundef %4)
  store i32 %19, ptr %8, align 4
  call void @llvm.lifetime.start.p0(i64 16, ptr %9) #3
  call void @llvm.lifetime.start.p0(i64 4, ptr %10) #3
  store i32 -4, ptr %10, align 4
  call void @_ZN7testing8internal8EqHelperILb0EE7CompareIiiEENS_15AssertionResultEPKcS6_RKT_RKT0_(ptr dead_on_unwind writable sret(%"class.testing::AssertionResult") align 8 %9, ptr noundef @.str.301, ptr noundef @.str.302, ptr noundef nonnull align 4 dereferenceable(4) %10, ptr noundef nonnull align 4 dereferenceable(4) %8)
  call void @llvm.lifetime.end.p0(i64 4, ptr %10) #3
  %20 = call noundef zeroext i1 @_ZNK7testing15AssertionResultcvbEv(ptr noundef nonnull align 8 dereferenceable(16) %9)
  br i1 %20, label %21, label %22

21:                                               ; preds = %1
  br label %42

22:                                               ; preds = %1
  call void @llvm.lifetime.start.p0(i64 8, ptr %11) #3
  invoke void @_ZN7testing7MessageC1Ev(ptr noundef nonnull align 8 dereferenceable(8) %11)
          to label %23 unwind label %28

23:                                               ; preds = %22
  call void @llvm.lifetime.start.p0(i64 8, ptr %14) #3
  %24 = invoke noundef ptr @_ZNK7testing15AssertionResult15failure_messageEv(ptr noundef nonnull align 8 dereferenceable(16) %9)
          to label %25 unwind label %32

25:                                               ; preds = %23
  invoke void @_ZN7testing8internal12AssertHelperC1ENS_14TestPartResult4TypeEPKciS5_(ptr noundef nonnull align 8 dereferenceable(8) %14, i32 noundef 2, ptr noundef @.str.286, i32 noundef 2284, ptr noundef %24)
          to label %26 unwind label %32

26:                                               ; preds = %25
  invoke void @_ZNK7testing8internal12AssertHelperaSERKNS_7MessageE(ptr noundef nonnull align 8 dereferenceable(8) %14, ptr noundef nonnull align 8 dereferenceable(8) %11)
          to label %27 unwind label %36

27:                                               ; preds = %26
  call void @_ZN7testing8internal12AssertHelperD1Ev(ptr noundef nonnull align 8 dereferenceable(8) %14) #3
  call void @llvm.lifetime.end.p0(i64 8, ptr %14) #3
  call void @_ZN7testing7MessageD2Ev(ptr noundef nonnull align 8 dereferenceable(8) %11) #3
  call void @llvm.lifetime.end.p0(i64 8, ptr %11) #3
  store i32 1, ptr %15, align 4
  br label %43

28:                                               ; preds = %22
  %29 = landingpad { ptr, i32 }
          cleanup
  %30 = extractvalue { ptr, i32 } %29, 0
  store ptr %30, ptr %12, align 8
  %31 = extractvalue { ptr, i32 } %29, 1
  store i32 %31, ptr %13, align 4
  br label %41

32:                                               ; preds = %25, %23
  %33 = landingpad { ptr, i32 }
          cleanup
  %34 = extractvalue { ptr, i32 } %33, 0
  store ptr %34, ptr %12, align 8
  %35 = extractvalue { ptr, i32 } %33, 1
  store i32 %35, ptr %13, align 4
  br label %40

36:                                               ; preds = %26
  %37 = landingpad { ptr, i32 }
          cleanup
  %38 = extractvalue { ptr, i32 } %37, 0
  store ptr %38, ptr %12, align 8
  %39 = extractvalue { ptr, i32 } %37, 1
  store i32 %39, ptr %13, align 4
  call void @_ZN7testing8internal12AssertHelperD1Ev(ptr noundef nonnull align 8 dereferenceable(8) %14) #3
  br label %40

40:                                               ; preds = %36, %32
  call void @llvm.lifetime.end.p0(i64 8, ptr %14) #3
  call void @_ZN7testing7MessageD2Ev(ptr noundef nonnull align 8 dereferenceable(8) %11) #3
  br label %41

41:                                               ; preds = %40, %28
  call void @llvm.lifetime.end.p0(i64 8, ptr %11) #3
  call void @_ZN7testing15AssertionResultD2Ev(ptr noundef nonnull align 8 dereferenceable(16) %9) #3
  call void @llvm.lifetime.end.p0(i64 16, ptr %9) #3
  call void @llvm.lifetime.end.p0(i64 4, ptr %8) #3
  call void @llvm.lifetime.end.p0(i64 8, ptr %7) #3
  call void @llvm.lifetime.end.p0(i64 8, ptr %6) #3
  call void @llvm.lifetime.end.p0(i64 16, ptr %5) #3
  call void @llvm.lifetime.end.p0(i64 8, ptr %4) #3
  call void @llvm.lifetime.end.p0(i64 8, ptr %3) #3
  br label %51

42:                                               ; preds = %21
  store i32 0, ptr %15, align 4
  br label %43

43:                                               ; preds = %42, %27
  call void @_ZN7testing15AssertionResultD2Ev(ptr noundef nonnull align 8 dereferenceable(16) %9) #3
  call void @llvm.lifetime.end.p0(i64 16, ptr %9) #3
  %44 = load i32, ptr %15, align 4
  switch i32 %44, label %48 [
    i32 0, label %45
  ]

45:                                               ; preds = %43
  %46 = load ptr, ptr %4, align 8
  %47 = call i32 @hs_free_compile_error(ptr noundef %46)
  store i32 0, ptr %15, align 4
  br label %48

48:                                               ; preds = %45, %43
  call void @llvm.lifetime.end.p0(i64 4, ptr %8) #3
  call void @llvm.lifetime.end.p0(i64 8, ptr %7) #3
  call void @llvm.lifetime.end.p0(i64 8, ptr %6) #3
  call void @llvm.lifetime.end.p0(i64 16, ptr %5) #3
  call void @llvm.lifetime.end.p0(i64 8, ptr %4) #3
  call void @llvm.lifetime.end.p0(i64 8, ptr %3) #3
  %49 = load i32, ptr %15, align 4
  switch i32 %49, label %56 [
    i32 0, label %50
    i32 1, label %50
  ]

50:                                               ; preds = %48, %48
  ret void

51:                                               ; preds = %41
  %52 = load ptr, ptr %12, align 8
  %53 = load i32, ptr %13, align 4
  %54 = insertvalue { ptr, i32 } poison, ptr %52, 0
  %55 = insertvalue { ptr, i32 } %54, i32 %53, 1
  resume { ptr, i32 } %55

56:                                               ; preds = %48
  unreachable
}